target datalayout = "e-m:e-p270:32:32-p271:32:32-p272:64:64-i64:64-i128:128-f80:128-n8:16:32:64-S128"
target triple = "x86_64-pc-linux-gnu"

@.str = private unnamed_addr constant [68 x i8] c"../openssl/providers/implementations/encode_decode/encode_key2any.c\00", align 1
@__func__.key_to_type_specific_der_bio = private unnamed_addr constant [29 x i8] c"key_to_type_specific_der_bio\00", align 1

; Function Attrs: nounwind uwtable
define internal i32 @key_to_type_specific_der_bio(ptr noundef %0, ptr noundef %1, i32 noundef %2, ptr noundef %3, ptr noundef %4, ptr noundef %5, ptr noundef %6) #0 {
  %8 = alloca i32, align 4
  %9 = alloca ptr, align 8
  %10 = alloca ptr, align 8
  %11 = alloca i32, align 4
  %12 = alloca ptr, align 8
  %13 = alloca ptr, align 8
  %14 = alloca ptr, align 8
  %15 = alloca ptr, align 8
  %16 = alloca ptr, align 8
  %17 = alloca i32, align 4
  %18 = alloca i32, align 4
  %19 = alloca i32, align 4
  store ptr %0, ptr %9, align 8, !tbaa !31
  store ptr %1, ptr %10, align 8, !tbaa !3
  store i32 %2, ptr %11, align 4, !tbaa !25
  store ptr %3, ptr %12, align 8, !tbaa !23
  store ptr %4, ptr %13, align 8, !tbaa !3
  store ptr %5, ptr %14, align 8, !tbaa !3
  store ptr %6, ptr %15, align 8, !tbaa !7
  call void @llvm.lifetime.start.p0(i64 8, ptr %16) #4
  store ptr null, ptr %16, align 8, !tbaa !23
  call void @llvm.lifetime.start.p0(i64 4, ptr %17) #4
  call void @llvm.lifetime.start.p0(i64 4, ptr %18) #4
  %20 = load ptr, ptr %14, align 8, !tbaa !3
  %21 = load ptr, ptr %10, align 8, !tbaa !3
  %22 = load ptr, ptr %15, align 8, !tbaa !7
  %23 = call i32 %20(ptr noundef %21, ptr noundef %16, ptr noundef %22)
  store i32 %23, ptr %17, align 4, !tbaa !25
  %24 = icmp sle i32 %23, 0
  br i1 %24, label %25, label %26

25:                                               ; preds = %7
  call void @ERR_new()
  call void @ERR_set_debug(ptr noundef @.str, i32 noundef 391, ptr noundef @__func__.key_to_type_specific_der_bio)
  call void (i32, i32, ptr, ...) @ERR_set_error(i32 noundef 57, i32 noundef 524345, ptr noundef null)
  store i32 0, ptr %8, align 4
  store i32 1, ptr %19, align 4
  br label %35

26:                                               ; preds = %7
  %27 = load ptr, ptr %9, align 8, !tbaa !31
  %28 = load ptr, ptr %16, align 8, !tbaa !23
  %29 = load i32, ptr %17, align 4, !tbaa !25
  %30 = call i32 @BIO_write(ptr noundef %27, ptr noundef %28, i32 noundef %29)
  store i32 %30, ptr %18, align 4, !tbaa !25
  %31 = load ptr, ptr %16, align 8, !tbaa !23
  call void @CRYPTO_free(ptr noundef %31, ptr noundef @.str, i32 noundef 396)
  %32 = load i32, ptr %18, align 4, !tbaa !25
  %33 = icmp sgt i32 %32, 0
  %34 = zext i1 %33 to i32
  store i32 %34, ptr %8, align 4
  store i32 1, ptr %19, align 4
  br label %35

35:                                               ; preds = %26, %25
  call void @llvm.lifetime.end.p0(i64 4, ptr %18) #4
  call void @llvm.lifetime.end.p0(i64 4, ptr %17) #4
  call void @llvm.lifetime.end.p0(i64 8, ptr %16) #4
  %36 = load i32, ptr %8, align 4
  ret i32 %36
}