; Function Attrs: nounwind uwtable
define internal range(i32 0, 2) i32 @key_to_type_specific_der_bio(ptr noundef %0, ptr noundef %1, i32 %2, ptr readnone captures(none) %3, ptr readnone captures(none) %4, ptr noundef readonly captures(none) %5, ptr noundef %6) #0 {
  %8 = alloca ptr, align 8
  call void @llvm.lifetime.start.p0(i64 8, ptr nonnull %8) #5
  store ptr null, ptr %8, align 8, !tbaa !16
  %9 = call i32 %5(ptr noundef %1, ptr noundef nonnull %8, ptr noundef %6) #5
  %10 = icmp slt i32 %9, 1
  br i1 %10, label %11, label %12

11:                                               ; preds = %7
  call void @ERR_new() #5
  call void @ERR_set_debug(ptr noundef nonnull @.str, i32 noundef 391, ptr noundef nonnull @__func__.key_to_type_specific_der_bio) #5
  call void (i32, i32, ptr, ...) @ERR_set_error(i32 noundef 57, i32 noundef 524345, ptr noundef null) #5
  br label %18

12:                                               ; preds = %7
  %13 = load ptr, ptr %8, align 8, !tbaa !16
  %14 = call i32 @BIO_write(ptr noundef %0, ptr noundef %13, i32 noundef %9) #5
  %15 = load ptr, ptr %8, align 8, !tbaa !16
  call void @CRYPTO_free(ptr noundef %15, ptr noundef nonnull @.str, i32 noundef 396) #5
  %16 = icmp sgt i32 %14, 0
  %17 = zext i1 %16 to i32
  br label %18

18:                                               ; preds = %12, %11
  %.0 = phi i32 [ 0, %11 ], [ %17, %12 ]
  call void @llvm.lifetime.end.p0(i64 8, ptr nonnull %8) #5
  ret i32 %.0
}